; Function Attrs: mustprogress ssp uwtable
define noundef zeroext i1 @_ZN6open3d4core3nns21NearestNeighborSearch8SetIndexEv(ptr noundef nonnull align 8 dereferenceable(216) %0) local_unnamed_addr #4 align 2 personality ptr @__gxx_personality_v0 {
  %2 = tail call noalias noundef nonnull dereferenceable(208) ptr @_Znwm(i64 noundef 208) #15
  invoke void @_ZN6open3d4core3nns14NanoFlannIndexC1Ev(ptr noundef nonnull align 8 dereferenceable(208) %2)
          to label %3 unwind label %15

3:                                                ; preds = %1
  %4 = load ptr, ptr %0, align 8, !tbaa !25
  store ptr %2, ptr %0, align 8, !tbaa !25
  %.not.i.i = icmp eq ptr %4, null
  br i1 %.not.i.i, label %_ZNSt10unique_ptrIN6open3d4core3nns14NanoFlannIndexESt14default_deleteIS3_EE5resetEPS3_.exit, label %_ZNKSt14default_deleteIN6open3d4core3nns14NanoFlannIndexEEclEPS3_.exit.i.i

_ZNKSt14default_deleteIN6open3d4core3nns14NanoFlannIndexEEclEPS3_.exit.i.i: ; preds = %3
  %5 = load ptr, ptr %4, align 8, !tbaa !4
  %6 = getelementptr inbounds nuw i8, ptr %5, i64 8
  %7 = load ptr, ptr %6, align 8
  tail call void %7(ptr noundef nonnull align 8 dereferenceable(208) %4) #14
  %.pre = load ptr, ptr %0, align 8, !tbaa !25
  br label %_ZNSt10unique_ptrIN6open3d4core3nns14NanoFlannIndexESt14default_deleteIS3_EE5resetEPS3_.exit

_ZNSt10unique_ptrIN6open3d4core3nns14NanoFlannIndexESt14default_deleteIS3_EE5resetEPS3_.exit: ; preds = %3, %_ZNKSt14default_deleteIN6open3d4core3nns14NanoFlannIndexEEclEPS3_.exit.i.i
  %8 = phi ptr [ %2, %3 ], [ %.pre, %_ZNKSt14default_deleteIN6open3d4core3nns14NanoFlannIndexEEclEPS3_.exit.i.i ]
  %9 = getelementptr inbounds nuw i8, ptr %0, i64 24
  %10 = getelementptr inbounds nuw i8, ptr %0, i64 184
  %11 = load ptr, ptr %8, align 8, !tbaa !4
  %12 = getelementptr inbounds nuw i8, ptr %11, i64 16
  %13 = load ptr, ptr %12, align 8
  %14 = tail call noundef zeroext i1 %13(ptr noundef nonnull align 8 dereferenceable(208) %8, ptr noundef nonnull align 8 dereferenceable(160) %9, ptr noundef nonnull align 8 dereferenceable(32) %10)
  ret i1 %14

15:                                               ; preds = %1
  %16 = landingpad { ptr, i32 }
          cleanup
  tail call void @_ZdlPvm(ptr noundef nonnull %2, i64 noundef 208) #16
  resume { ptr, i32 } %16
}